target datalayout = "e-m:e-p270:32:32-p271:32:32-p272:64:64-i64:64-i128:128-f80:128-n8:16:32:64-S128"
target triple = "x86_64-pc-linux-gnu"

%struct.strbuf = type { i64, i64, ptr }
%struct.http_pack_request = type { ptr, ptr, i8, ptr, %struct.strbuf, ptr, ptr }

; Function Attrs: nounwind uwtable
define dso_local void @release_http_pack_request(ptr noundef %0) #0 {
  %2 = alloca ptr, align 8
  store ptr %0, ptr %2, align 8, !tbaa !187
  %3 = load ptr, ptr %2, align 8, !tbaa !187
  %4 = getelementptr inbounds nuw %struct.http_pack_request, ptr %3, i32 0, i32 3
  %5 = load ptr, ptr %4, align 8, !tbaa !189
  %6 = icmp ne ptr %5, null
  br i1 %6, label %7, label %14

7:                                                ; preds = %1
  %8 = load ptr, ptr %2, align 8, !tbaa !187
  %9 = getelementptr inbounds nuw %struct.http_pack_request, ptr %8, i32 0, i32 3
  %10 = load ptr, ptr %9, align 8, !tbaa !189
  %11 = call i32 @fclose(ptr noundef %10)
  %12 = load ptr, ptr %2, align 8, !tbaa !187
  %13 = getelementptr inbounds nuw %struct.http_pack_request, ptr %12, i32 0, i32 3
  store ptr null, ptr %13, align 8, !tbaa !189
  br label %14

14:                                               ; preds = %7, %1
  %15 = load ptr, ptr %2, align 8, !tbaa !187
  %16 = getelementptr inbounds nuw %struct.http_pack_request, ptr %15, i32 0, i32 5
  store ptr null, ptr %16, align 8, !tbaa !191
  %17 = load ptr, ptr %2, align 8, !tbaa !187
  %18 = getelementptr inbounds nuw %struct.http_pack_request, ptr %17, i32 0, i32 4
  call void @strbuf_release(ptr noundef %18)
  %19 = load ptr, ptr %2, align 8, !tbaa !187
  %20 = getelementptr inbounds nuw %struct.http_pack_request, ptr %19, i32 0, i32 6
  %21 = load ptr, ptr %20, align 8, !tbaa !192
  call void @curl_slist_free_all(ptr noundef %21)
  %22 = load ptr, ptr %2, align 8, !tbaa !187
  %23 = getelementptr inbounds nuw %struct.http_pack_request, ptr %22, i32 0, i32 0
  %24 = load ptr, ptr %23, align 8, !tbaa !193
  call void @free(ptr noundef %24) #11
  %25 = load ptr, ptr %2, align 8, !tbaa !187
  call void @free(ptr noundef %25) #11
  ret void
}