; Function Attrs: nounwind uwtable
define dso_local void @release_http_pack_request(ptr noundef initializes((56, 64)) %0) local_unnamed_addr #3 {
  %2 = getelementptr inbounds nuw i8, ptr %0, i64 24
  %3 = load ptr, ptr %2, align 8, !tbaa !165
  %.not = icmp eq ptr %3, null
  br i1 %.not, label %6, label %4

4:                                                ; preds = %1
  %5 = tail call i32 @fclose(ptr noundef nonnull %3)
  store ptr null, ptr %2, align 8, !tbaa !165
  br label %6

6:                                                ; preds = %4, %1
  %7 = getelementptr inbounds nuw i8, ptr %0, i64 56
  store ptr null, ptr %7, align 8, !tbaa !167
  %8 = getelementptr inbounds nuw i8, ptr %0, i64 32
  tail call void @strbuf_release(ptr noundef nonnull %8) #22
  %9 = getelementptr inbounds nuw i8, ptr %0, i64 64
  %10 = load ptr, ptr %9, align 8, !tbaa !168
  tail call void @curl_slist_free_all(ptr noundef %10) #22
  %11 = load ptr, ptr %0, align 8, !tbaa !169
  tail call void @free(ptr noundef %11) #22
  tail call void @free(ptr noundef nonnull %0) #22
  ret void
}